target datalayout = "e-m:e-p270:32:32-p271:32:32-p272:64:64-i64:64-i128:128-f80:128-n8:16:32:64-S128"
target triple = "x86_64-pc-linux-gnu"

%"struct.std::atomic" = type { %"struct.std::__atomic_base" }
%"struct.std::__atomic_base" = type { i32 }
%"class.icu_77::UnifiedCache" = type { %"class.icu_77::UnifiedCacheBase", ptr, i32, i32, i32, i32, i32, i64, ptr }
%"class.icu_77::UnifiedCacheBase" = type { %"class.icu_77::UObject" }
%"class.icu_77::UObject" = type { ptr }
%"class.icu_77::SharedObject" = type { %"class.icu_77::UObject", i32, %"struct.std::atomic", ptr }
%"class.icu_77::CacheKeyBase" = type <{ %"class.icu_77::UObject", i32, i8, [3 x i8] }>

; Function Attrs: inlinehint mustprogress nounwind uwtable
define internal noundef signext i8 @_ZL9U_SUCCESS10UErrorCode(i32 noundef %0) #6 {
  %2 = alloca i32, align 4
  store i32 %0, ptr %2, align 4, !tbaa !12
  %3 = load i32, ptr %2, align 4, !tbaa !12
  %4 = icmp sle i32 %3, 0
  %5 = zext i1 %4 to i8
  ret i8 %5
}

; Function Attrs: mustprogress nounwind uwtable
define void @_ZNK6icu_7712UnifiedCache16_registerPrimaryEPKNS_12CacheKeyBaseEPKNS_12SharedObjectE(ptr noundef nonnull align 8 dereferenceable(56) %0, ptr noundef %1, ptr noundef %2) #3 align 2 {
  %4 = alloca ptr, align 8
  %5 = alloca ptr, align 8
  %6 = alloca ptr, align 8
  store ptr %0, ptr %4, align 8, !tbaa !14
  store ptr %1, ptr %5, align 8, !tbaa !6
  store ptr %2, ptr %6, align 8, !tbaa !46
  %7 = load ptr, ptr %4, align 8
  %8 = load ptr, ptr %5, align 8, !tbaa !6
  %9 = getelementptr inbounds nuw %"class.icu_77::CacheKeyBase", ptr %8, i32 0, i32 2
  store i8 1, ptr %9, align 4, !tbaa !62
  %10 = load ptr, ptr %6, align 8, !tbaa !46
  %11 = getelementptr inbounds nuw %"class.icu_77::SharedObject", ptr %10, i32 0, i32 3
  store ptr %7, ptr %11, align 8, !tbaa !44
  %12 = getelementptr inbounds nuw %"class.icu_77::UnifiedCache", ptr %7, i32 0, i32 3
  %13 = load i32, ptr %12, align 4, !tbaa !35
  %14 = add nsw i32 %13, 1
  store i32 %14, ptr %12, align 4, !tbaa !35
  %15 = getelementptr inbounds nuw %"class.icu_77::UnifiedCache", ptr %7, i32 0, i32 4
  %16 = load i32, ptr %15, align 8, !tbaa !36
  %17 = add nsw i32 %16, 1
  store i32 %17, ptr %15, align 8, !tbaa !36
  ret void
}

; Function Attrs: inlinehint mustprogress nounwind uwtable
define internal noundef signext i8 @_ZL9U_FAILURE10UErrorCode(i32 noundef %0) #6 {
  %2 = alloca i32, align 4
  store i32 %0, ptr %2, align 4, !tbaa !12
  %3 = load i32, ptr %2, align 4, !tbaa !12
  %4 = icmp sgt i32 %3, 0
  %5 = zext i1 %4 to i8
  ret i8 %5
}

; Function Attrs: mustprogress uwtable
define void @_ZNK6icu_7712UnifiedCache7_putNewERKNS_12CacheKeyBaseEPKNS_12SharedObjectE10UErrorCodeRS7_(ptr noundef nonnull align 8 dereferenceable(56) %0, ptr noundef nonnull align 8 dereferenceable(13) %1, ptr noundef %2, i32 noundef %3, ptr noundef nonnull align 4 dereferenceable(4) %4) #0 align 2 {
  %6 = alloca ptr, align 8
  %7 = alloca ptr, align 8
  %8 = alloca ptr, align 8
  %9 = alloca i32, align 4
  %10 = alloca ptr, align 8
  %11 = alloca ptr, align 8
  %12 = alloca i32, align 4
  %13 = alloca ptr, align 8
  store ptr %0, ptr %6, align 8, !tbaa !14
  store ptr %1, ptr %7, align 8, !tbaa !6
  store ptr %2, ptr %8, align 8, !tbaa !46
  store i32 %3, ptr %9, align 4, !tbaa !12
  store ptr %4, ptr %10, align 8, !tbaa !11
  %14 = load ptr, ptr %6, align 8
  %15 = load ptr, ptr %10, align 8, !tbaa !11
  %16 = load i32, ptr %15, align 4, !tbaa !12
  %17 = call noundef signext i8 @_ZL9U_FAILURE10UErrorCode(i32 noundef %16)
  %18 = icmp ne i8 %17, 0
  br i1 %18, label %19, label %20

19:                                               ; preds = %5
  br label %60

20:                                               ; preds = %5
  call void @llvm.lifetime.start.p0(i64 8, ptr %11) #12
  %21 = load ptr, ptr %7, align 8, !tbaa !6
  %22 = load ptr, ptr %21, align 8, !tbaa !9
  %23 = getelementptr inbounds ptr, ptr %22, i64 4
  %24 = load ptr, ptr %23, align 8
  %25 = call noundef ptr %24(ptr noundef nonnull align 8 dereferenceable(13) %21)
  store ptr %25, ptr %11, align 8, !tbaa !6
  %26 = load ptr, ptr %11, align 8, !tbaa !6
  %27 = icmp eq ptr %26, null
  br i1 %27, label %28, label %30

28:                                               ; preds = %20
  %29 = load ptr, ptr %10, align 8, !tbaa !11
  store i32 7, ptr %29, align 4, !tbaa !12
  store i32 1, ptr %12, align 4
  br label %58

30:                                               ; preds = %20
  %31 = load i32, ptr %9, align 4, !tbaa !12
  %32 = load ptr, ptr %11, align 8, !tbaa !6
  %33 = getelementptr inbounds nuw %"class.icu_77::CacheKeyBase", ptr %32, i32 0, i32 1
  store i32 %31, ptr %33, align 8, !tbaa !60
  %34 = load ptr, ptr %8, align 8, !tbaa !46
  %35 = getelementptr inbounds nuw %"class.icu_77::SharedObject", ptr %34, i32 0, i32 1
  %36 = load i32, ptr %35, align 8, !tbaa !41
  %37 = icmp eq i32 %36, 0
  br i1 %37, label %38, label %41

38:                                               ; preds = %30
  %39 = load ptr, ptr %11, align 8, !tbaa !6
  %40 = load ptr, ptr %8, align 8, !tbaa !46
  call void @_ZNK6icu_7712UnifiedCache16_registerPrimaryEPKNS_12CacheKeyBaseEPKNS_12SharedObjectE(ptr noundef nonnull align 8 dereferenceable(56) %14, ptr noundef %39, ptr noundef %40)
  br label %41

41:                                               ; preds = %38, %30
  call void @llvm.lifetime.start.p0(i64 8, ptr %13) #12
  %42 = getelementptr inbounds nuw %"class.icu_77::UnifiedCache", ptr %14, i32 0, i32 1
  %43 = load ptr, ptr %42, align 8, !tbaa !27
  %44 = load ptr, ptr %11, align 8, !tbaa !6
  %45 = load ptr, ptr %8, align 8, !tbaa !46
  %46 = load ptr, ptr %10, align 8, !tbaa !11
  %47 = call ptr @uhash_put_77(ptr noundef %43, ptr noundef %44, ptr noundef %45, ptr noundef %46)
  store ptr %47, ptr %13, align 8, !tbaa !11
  %48 = load ptr, ptr %10, align 8, !tbaa !11
  %49 = load i32, ptr %48, align 4, !tbaa !12
  %50 = call noundef signext i8 @_ZL9U_SUCCESS10UErrorCode(i32 noundef %49)
  %51 = icmp ne i8 %50, 0
  br i1 %51, label %52, label %57

52:                                               ; preds = %41
  %53 = load ptr, ptr %8, align 8, !tbaa !46
  %54 = getelementptr inbounds nuw %"class.icu_77::SharedObject", ptr %53, i32 0, i32 1
  %55 = load i32, ptr %54, align 8, !tbaa !41
  %56 = add nsw i32 %55, 1
  store i32 %56, ptr %54, align 8, !tbaa !41
  br label %57

57:                                               ; preds = %52, %41
  call void @llvm.lifetime.end.p0(i64 8, ptr %13) #12
  store i32 0, ptr %12, align 4
  br label %58

58:                                               ; preds = %57, %28
  call void @llvm.lifetime.end.p0(i64 8, ptr %11) #12
  %59 = load i32, ptr %12, align 4
  switch i32 %59, label %61 [
    i32 0, label %60
    i32 1, label %60
  ]

60:                                               ; preds = %19, %58, %58
  ret void

61:                                               ; preds = %58
  unreachable
}