; Function Attrs: mustprogress uwtable
define void @_ZNK6icu_7712UnifiedCache7_putNewERKNS_12CacheKeyBaseEPKNS_12SharedObjectE10UErrorCodeRS7_(ptr noundef nonnull align 8 dereferenceable(56) %0, ptr noundef nonnull align 8 dereferenceable(13) %1, ptr noundef %2, i32 noundef %3, ptr noundef nonnull align 4 dereferenceable(4) %4) local_unnamed_addr #0 align 2 {
  %6 = load i32, ptr %4, align 4, !tbaa !6
  %7 = icmp slt i32 %6, 1
  br i1 %7, label %8, label %38

8:                                                ; preds = %5
  %9 = load ptr, ptr %1, align 8, !tbaa !3
  %10 = getelementptr inbounds nuw i8, ptr %9, i64 32
  %11 = load ptr, ptr %10, align 8
  %12 = tail call noundef ptr %11(ptr noundef nonnull align 8 dereferenceable(13) %1)
  %13 = icmp eq ptr %12, null
  br i1 %13, label %14, label %15

14:                                               ; preds = %8
  store i32 7, ptr %4, align 4, !tbaa !6
  br label %38

15:                                               ; preds = %8
  %16 = getelementptr inbounds nuw i8, ptr %12, i64 8
  store i32 %3, ptr %16, align 8, !tbaa !42
  %17 = getelementptr inbounds nuw i8, ptr %2, i64 8
  %18 = load i32, ptr %17, align 8, !tbaa !34
  %19 = icmp eq i32 %18, 0
  br i1 %19, label %20, label %29

20:                                               ; preds = %15
  %21 = getelementptr inbounds nuw i8, ptr %12, i64 12
  store i8 1, ptr %21, align 4, !tbaa !44
  %22 = getelementptr inbounds nuw i8, ptr %2, i64 16
  store ptr %0, ptr %22, align 8, !tbaa !37
  %23 = getelementptr inbounds nuw i8, ptr %0, i64 20
  %24 = load i32, ptr %23, align 4, !tbaa !29
  %25 = add nsw i32 %24, 1
  store i32 %25, ptr %23, align 4, !tbaa !29
  %26 = getelementptr inbounds nuw i8, ptr %0, i64 24
  %27 = load i32, ptr %26, align 8, !tbaa !30
  %28 = add nsw i32 %27, 1
  store i32 %28, ptr %26, align 8, !tbaa !30
  br label %29

29:                                               ; preds = %20, %15
  %30 = getelementptr inbounds nuw i8, ptr %0, i64 8
  %31 = load ptr, ptr %30, align 8, !tbaa !21
  %32 = tail call ptr @uhash_put_77(ptr noundef %31, ptr noundef nonnull %12, ptr noundef nonnull %2, ptr noundef nonnull %4)
  %33 = load i32, ptr %4, align 4, !tbaa !6
  %34 = icmp sgt i32 %33, 0
  br i1 %34, label %38, label %35

35:                                               ; preds = %29
  %36 = load i32, ptr %17, align 8, !tbaa !34
  %37 = add nsw i32 %36, 1
  store i32 %37, ptr %17, align 8, !tbaa !34
  br label %38

38:                                               ; preds = %14, %35, %29, %5
  ret void
}